target datalayout = "e-m:e-p270:32:32-p271:32:32-p272:64:64-i64:64-i128:128-f80:128-n8:16:32:64-S128"
target triple = "x86_64-pc-linux-gnu"

%struct.bio_st = type { ptr, ptr, ptr, i32, i32, i32, i32, i32, i32, ptr, ptr, i64, i64 }
%struct.bio_f_buffer_ctx_struct = type { i32, i32, ptr, i32, i32, ptr, i32, i32 }

; Function Attrs: nounwind uwtable
define internal i32 @buffer_read(ptr noundef %0, ptr noundef %1, i32 noundef %2) #0 {
  %4 = alloca i32, align 4
  %5 = alloca ptr, align 8
  %6 = alloca ptr, align 8
  %7 = alloca i32, align 4
  %8 = alloca i32, align 4
  %9 = alloca i32, align 4
  %10 = alloca ptr, align 8
  %11 = alloca i32, align 4
  store ptr %0, ptr %5, align 8, !tbaa !6
  store ptr %1, ptr %6, align 8, !tbaa !13
  store i32 %2, ptr %7, align 4, !tbaa !11
  call void @llvm.lifetime.start.p0(i64 4, ptr %8) #8
  call void @llvm.lifetime.start.p0(i64 4, ptr %9) #8
  store i32 0, ptr %9, align 4, !tbaa !11
  call void @llvm.lifetime.start.p0(i64 8, ptr %10) #8
  %12 = load ptr, ptr %5, align 8, !tbaa !6
  %13 = getelementptr inbounds nuw %struct.bio_st, ptr %12, i32 0, i32 9
  %14 = load ptr, ptr %13, align 8, !tbaa !15
  store ptr %14, ptr %10, align 8, !tbaa !19
  %15 = load ptr, ptr %10, align 8, !tbaa !19
  %16 = icmp eq ptr %15, null
  br i1 %16, label %22, label %17

17:                                               ; preds = %3
  %18 = load ptr, ptr %5, align 8, !tbaa !6
  %19 = getelementptr inbounds nuw %struct.bio_st, ptr %18, i32 0, i32 10
  %20 = load ptr, ptr %19, align 8, !tbaa !21
  %21 = icmp eq ptr %20, null
  br i1 %21, label %22, label %23

22:                                               ; preds = %17, %3
  store i32 0, ptr %4, align 4
  store i32 1, ptr %11, align 4
  br label %157

23:                                               ; preds = %17
  store i32 0, ptr %9, align 4, !tbaa !11
  %24 = load ptr, ptr %5, align 8, !tbaa !6
  call void @BIO_clear_retry_flags(ptr noundef %24)
  br label %25

25:                                               ; preds = %151, %23
  %26 = load ptr, ptr %10, align 8, !tbaa !19
  %27 = getelementptr inbounds nuw %struct.bio_f_buffer_ctx_struct, ptr %26, i32 0, i32 3
  %28 = load i32, ptr %27, align 8, !tbaa !29
  store i32 %28, ptr %8, align 4, !tbaa !11
  %29 = load i32, ptr %8, align 4, !tbaa !11
  %30 = icmp ne i32 %29, 0
  br i1 %30, label %31, label %75

31:                                               ; preds = %25
  %32 = load i32, ptr %8, align 4, !tbaa !11
  %33 = load i32, ptr %7, align 4, !tbaa !11
  %34 = icmp sgt i32 %32, %33
  br i1 %34, label %35, label %37

35:                                               ; preds = %31
  %36 = load i32, ptr %7, align 4, !tbaa !11
  store i32 %36, ptr %8, align 4, !tbaa !11
  br label %37

37:                                               ; preds = %35, %31
  %38 = load ptr, ptr %6, align 8, !tbaa !13
  %39 = load ptr, ptr %10, align 8, !tbaa !19
  %40 = getelementptr inbounds nuw %struct.bio_f_buffer_ctx_struct, ptr %39, i32 0, i32 2
  %41 = load ptr, ptr %40, align 8, !tbaa !30
  %42 = load ptr, ptr %10, align 8, !tbaa !19
  %43 = getelementptr inbounds nuw %struct.bio_f_buffer_ctx_struct, ptr %42, i32 0, i32 4
  %44 = load i32, ptr %43, align 4, !tbaa !31
  %45 = sext i32 %44 to i64
  %46 = getelementptr inbounds i8, ptr %41, i64 %45
  %47 = load i32, ptr %8, align 4, !tbaa !11
  %48 = sext i32 %47 to i64
  call void @llvm.memcpy.p0.p0.i64(ptr align 1 %38, ptr align 1 %46, i64 %48, i1 false)
  %49 = load i32, ptr %8, align 4, !tbaa !11
  %50 = load ptr, ptr %10, align 8, !tbaa !19
  %51 = getelementptr inbounds nuw %struct.bio_f_buffer_ctx_struct, ptr %50, i32 0, i32 4
  %52 = load i32, ptr %51, align 4, !tbaa !31
  %53 = add nsw i32 %52, %49
  store i32 %53, ptr %51, align 4, !tbaa !31
  %54 = load i32, ptr %8, align 4, !tbaa !11
  %55 = load ptr, ptr %10, align 8, !tbaa !19
  %56 = getelementptr inbounds nuw %struct.bio_f_buffer_ctx_struct, ptr %55, i32 0, i32 3
  %57 = load i32, ptr %56, align 8, !tbaa !29
  %58 = sub nsw i32 %57, %54
  store i32 %58, ptr %56, align 8, !tbaa !29
  %59 = load i32, ptr %8, align 4, !tbaa !11
  %60 = load i32, ptr %9, align 4, !tbaa !11
  %61 = add nsw i32 %60, %59
  store i32 %61, ptr %9, align 4, !tbaa !11
  %62 = load i32, ptr %7, align 4, !tbaa !11
  %63 = load i32, ptr %8, align 4, !tbaa !11
  %64 = icmp eq i32 %62, %63
  br i1 %64, label %65, label %67

65:                                               ; preds = %37
  %66 = load i32, ptr %9, align 4, !tbaa !11
  store i32 %66, ptr %4, align 4
  store i32 1, ptr %11, align 4
  br label %157

67:                                               ; preds = %37
  %68 = load i32, ptr %8, align 4, !tbaa !11
  %69 = load i32, ptr %7, align 4, !tbaa !11
  %70 = sub nsw i32 %69, %68
  store i32 %70, ptr %7, align 4, !tbaa !11
  %71 = load i32, ptr %8, align 4, !tbaa !11
  %72 = load ptr, ptr %6, align 8, !tbaa !13
  %73 = sext i32 %71 to i64
  %74 = getelementptr inbounds i8, ptr %72, i64 %73
  store ptr %74, ptr %6, align 8, !tbaa !13
  br label %75

75:                                               ; preds = %67, %25
  %76 = load i32, ptr %7, align 4, !tbaa !11
  %77 = load ptr, ptr %10, align 8, !tbaa !19
  %78 = getelementptr inbounds nuw %struct.bio_f_buffer_ctx_struct, ptr %77, i32 0, i32 0
  %79 = load i32, ptr %78, align 8, !tbaa !32
  %80 = icmp sgt i32 %76, %79
  br i1 %80, label %81, label %123

81:                                               ; preds = %75
  br label %82

82:                                               ; preds = %115, %81
  %83 = load ptr, ptr %5, align 8, !tbaa !6
  %84 = getelementptr inbounds nuw %struct.bio_st, ptr %83, i32 0, i32 10
  %85 = load ptr, ptr %84, align 8, !tbaa !21
  %86 = load ptr, ptr %6, align 8, !tbaa !13
  %87 = load i32, ptr %7, align 4, !tbaa !11
  %88 = call i32 @BIO_read(ptr noundef %85, ptr noundef %86, i32 noundef %87)
  store i32 %88, ptr %8, align 4, !tbaa !11
  %89 = load i32, ptr %8, align 4, !tbaa !11
  %90 = icmp sle i32 %89, 0
  br i1 %90, label %91, label %106

91:                                               ; preds = %82
  %92 = load ptr, ptr %5, align 8, !tbaa !6
  call void @BIO_copy_next_retry(ptr noundef %92)
  %93 = load i32, ptr %8, align 4, !tbaa !11
  %94 = icmp slt i32 %93, 0
  br i1 %94, label %95, label %104

95:                                               ; preds = %91
  %96 = load i32, ptr %9, align 4, !tbaa !11
  %97 = icmp sgt i32 %96, 0
  br i1 %97, label %98, label %100

98:                                               ; preds = %95
  %99 = load i32, ptr %9, align 4, !tbaa !11
  br label %102

100:                                              ; preds = %95
  %101 = load i32, ptr %8, align 4, !tbaa !11
  br label %102

102:                                              ; preds = %100, %98
  %103 = phi i32 [ %99, %98 ], [ %101, %100 ]
  store i32 %103, ptr %4, align 4
  store i32 1, ptr %11, align 4
  br label %157

104:                                              ; preds = %91
  %105 = load i32, ptr %9, align 4, !tbaa !11
  store i32 %105, ptr %4, align 4
  store i32 1, ptr %11, align 4
  br label %157

106:                                              ; preds = %82
  %107 = load i32, ptr %8, align 4, !tbaa !11
  %108 = load i32, ptr %9, align 4, !tbaa !11
  %109 = add nsw i32 %108, %107
  store i32 %109, ptr %9, align 4, !tbaa !11
  %110 = load i32, ptr %7, align 4, !tbaa !11
  %111 = load i32, ptr %8, align 4, !tbaa !11
  %112 = icmp eq i32 %110, %111
  br i1 %112, label %113, label %115

113:                                              ; preds = %106
  %114 = load i32, ptr %9, align 4, !tbaa !11
  store i32 %114, ptr %4, align 4
  store i32 1, ptr %11, align 4
  br label %157

115:                                              ; preds = %106
  %116 = load i32, ptr %8, align 4, !tbaa !11
  %117 = load ptr, ptr %6, align 8, !tbaa !13
  %118 = sext i32 %116 to i64
  %119 = getelementptr inbounds i8, ptr %117, i64 %118
  store ptr %119, ptr %6, align 8, !tbaa !13
  %120 = load i32, ptr %8, align 4, !tbaa !11
  %121 = load i32, ptr %7, align 4, !tbaa !11
  %122 = sub nsw i32 %121, %120
  store i32 %122, ptr %7, align 4, !tbaa !11
  br label %82

123:                                              ; preds = %75
  %124 = load ptr, ptr %5, align 8, !tbaa !6
  %125 = getelementptr inbounds nuw %struct.bio_st, ptr %124, i32 0, i32 10
  %126 = load ptr, ptr %125, align 8, !tbaa !21
  %127 = load ptr, ptr %10, align 8, !tbaa !19
  %128 = getelementptr inbounds nuw %struct.bio_f_buffer_ctx_struct, ptr %127, i32 0, i32 2
  %129 = load ptr, ptr %128, align 8, !tbaa !30
  %130 = load ptr, ptr %10, align 8, !tbaa !19
  %131 = getelementptr inbounds nuw %struct.bio_f_buffer_ctx_struct, ptr %130, i32 0, i32 0
  %132 = load i32, ptr %131, align 8, !tbaa !32
  %133 = call i32 @BIO_read(ptr noundef %126, ptr noundef %129, i32 noundef %132)
  store i32 %133, ptr %8, align 4, !tbaa !11
  %134 = load i32, ptr %8, align 4, !tbaa !11
  %135 = icmp sle i32 %134, 0
  br i1 %135, label %136, label %151

136:                                              ; preds = %123
  %137 = load ptr, ptr %5, align 8, !tbaa !6
  call void @BIO_copy_next_retry(ptr noundef %137)
  %138 = load i32, ptr %8, align 4, !tbaa !11
  %139 = icmp slt i32 %138, 0
  br i1 %139, label %140, label %149

140:                                              ; preds = %136
  %141 = load i32, ptr %9, align 4, !tbaa !11
  %142 = icmp sgt i32 %141, 0
  br i1 %142, label %143, label %145

143:                                              ; preds = %140
  %144 = load i32, ptr %9, align 4, !tbaa !11
  br label %147

145:                                              ; preds = %140
  %146 = load i32, ptr %8, align 4, !tbaa !11
  br label %147

147:                                              ; preds = %145, %143
  %148 = phi i32 [ %144, %143 ], [ %146, %145 ]
  store i32 %148, ptr %4, align 4
  store i32 1, ptr %11, align 4
  br label %157

149:                                              ; preds = %136
  %150 = load i32, ptr %9, align 4, !tbaa !11
  store i32 %150, ptr %4, align 4
  store i32 1, ptr %11, align 4
  br label %157

151:                                              ; preds = %123
  %152 = load ptr, ptr %10, align 8, !tbaa !19
  %153 = getelementptr inbounds nuw %struct.bio_f_buffer_ctx_struct, ptr %152, i32 0, i32 4
  store i32 0, ptr %153, align 4, !tbaa !31
  %154 = load i32, ptr %8, align 4, !tbaa !11
  %155 = load ptr, ptr %10, align 8, !tbaa !19
  %156 = getelementptr inbounds nuw %struct.bio_f_buffer_ctx_struct, ptr %155, i32 0, i32 3
  store i32 %154, ptr %156, align 8, !tbaa !29
  br label %25

157:                                              ; preds = %149, %147, %113, %104, %102, %65, %22
  call void @llvm.lifetime.end.p0(i64 8, ptr %10) #8
  call void @llvm.lifetime.end.p0(i64 4, ptr %9) #8
  call void @llvm.lifetime.end.p0(i64 4, ptr %8) #8
  %158 = load i32, ptr %4, align 4
  ret i32 %158
}