; Function Attrs: nounwind uwtable
define internal i32 @buffer_read(ptr noundef %0, ptr noundef %1, i32 noundef %2) #1 {
  %4 = getelementptr inbounds nuw i8, ptr %0, i64 48
  %5 = load ptr, ptr %4, align 8, !tbaa !6
  %6 = icmp eq ptr %5, null
  br i1 %6, label %.loopexit, label %7

7:                                                ; preds = %3
  %8 = getelementptr inbounds nuw i8, ptr %0, i64 56
  %9 = load ptr, ptr %8, align 8, !tbaa !16
  %10 = icmp eq ptr %9, null
  br i1 %10, label %.loopexit, label %11

11:                                               ; preds = %7
  tail call void @BIO_clear_retry_flags(ptr noundef nonnull %0) #11
  %12 = getelementptr inbounds nuw i8, ptr %5, i64 16
  %13 = getelementptr inbounds nuw i8, ptr %5, i64 8
  %14 = getelementptr inbounds nuw i8, ptr %5, i64 20
  %.pre = load i32, ptr %12, align 8, !tbaa !24
  br label %15

15:                                               ; preds = %60, %11
  %16 = phi i32 [ %.pre, %11 ], [ %53, %60 ]
  %.065 = phi ptr [ %1, %11 ], [ %.166, %60 ]
  %.062 = phi i32 [ %2, %11 ], [ %.163, %60 ]
  %.060 = phi i32 [ 0, %11 ], [ %.1, %60 ]
  %.not = icmp eq i32 %16, 0
  br i1 %.not, label %31, label %17

17:                                               ; preds = %15
  %spec.select = tail call i32 @llvm.smin.i32(i32 %16, i32 %.062)
  %18 = load ptr, ptr %13, align 8, !tbaa !25
  %19 = load i32, ptr %14, align 4, !tbaa !26
  %20 = sext i32 %19 to i64
  %21 = getelementptr inbounds i8, ptr %18, i64 %20
  %22 = sext i32 %spec.select to i64
  tail call void @llvm.memcpy.p0.p0.i64(ptr align 1 %.065, ptr align 1 %21, i64 %22, i1 false)
  %23 = load i32, ptr %14, align 4, !tbaa !26
  %24 = add nsw i32 %23, %spec.select
  store i32 %24, ptr %14, align 4, !tbaa !26
  %25 = load i32, ptr %12, align 8, !tbaa !24
  %26 = sub nsw i32 %25, %spec.select
  store i32 %26, ptr %12, align 8, !tbaa !24
  %27 = add nsw i32 %spec.select, %.060
  %.not75 = icmp sgt i32 %.062, %16
  br i1 %.not75, label %28, label %.loopexit

28:                                               ; preds = %17
  %29 = sub nsw i32 %.062, %spec.select
  %30 = getelementptr inbounds i8, ptr %.065, i64 %22
  br label %31

31:                                               ; preds = %28, %15
  %.166 = phi ptr [ %30, %28 ], [ %.065, %15 ]
  %.163 = phi i32 [ %29, %28 ], [ %.062, %15 ]
  %.1 = phi i32 [ %27, %28 ], [ %.060, %15 ]
  %32 = load i32, ptr %5, align 8, !tbaa !27
  %33 = icmp sgt i32 %.163, %32
  %34 = load ptr, ptr %8, align 8, !tbaa !16
  br i1 %33, label %.preheader, label %51

.preheader:                                       ; preds = %31
  %35 = tail call i32 @BIO_read(ptr noundef %34, ptr noundef %.166, i32 noundef %.163) #11
  %36 = icmp slt i32 %35, 1
  br i1 %36, label %._crit_edge, label %.lr.ph

._crit_edge:                                      ; preds = %44, %.preheader
  %.2.lcssa = phi i32 [ %.1, %.preheader ], [ %42, %44 ]
  %.lcssa = phi i32 [ %35, %.preheader ], [ %49, %44 ]
  tail call void @BIO_copy_next_retry(ptr noundef nonnull %0) #11
  %37 = icmp slt i32 %.lcssa, 0
  br i1 %37, label %38, label %.loopexit

38:                                               ; preds = %._crit_edge
  %39 = icmp sgt i32 %.2.lcssa, 0
  %40 = select i1 %39, i32 %.2.lcssa, i32 %.lcssa
  br label %.loopexit

.lr.ph:                                           ; preds = %.preheader, %44
  %41 = phi i32 [ %49, %44 ], [ %35, %.preheader ]
  %.287 = phi i32 [ %42, %44 ], [ %.1, %.preheader ]
  %.26486 = phi i32 [ %47, %44 ], [ %.163, %.preheader ]
  %.26785 = phi ptr [ %46, %44 ], [ %.166, %.preheader ]
  %42 = add nsw i32 %41, %.287
  %43 = icmp eq i32 %.26486, %41
  br i1 %43, label %.loopexit, label %44

44:                                               ; preds = %.lr.ph
  %45 = zext nneg i32 %41 to i64
  %46 = getelementptr inbounds nuw i8, ptr %.26785, i64 %45
  %47 = sub nsw i32 %.26486, %41
  %48 = load ptr, ptr %8, align 8, !tbaa !16
  %49 = tail call i32 @BIO_read(ptr noundef %48, ptr noundef nonnull %46, i32 noundef %47) #11
  %50 = icmp slt i32 %49, 1
  br i1 %50, label %._crit_edge, label %.lr.ph

51:                                               ; preds = %31
  %52 = load ptr, ptr %13, align 8, !tbaa !25
  %53 = tail call i32 @BIO_read(ptr noundef %34, ptr noundef %52, i32 noundef %32) #11
  %54 = icmp slt i32 %53, 1
  br i1 %54, label %55, label %60

55:                                               ; preds = %51
  tail call void @BIO_copy_next_retry(ptr noundef nonnull %0) #11
  %56 = icmp slt i32 %53, 0
  br i1 %56, label %57, label %.loopexit

57:                                               ; preds = %55
  %58 = icmp sgt i32 %.1, 0
  %59 = select i1 %58, i32 %.1, i32 %53
  br label %.loopexit

60:                                               ; preds = %51
  store i32 0, ptr %14, align 4, !tbaa !26
  store i32 %53, ptr %12, align 8, !tbaa !24
  br label %15

.loopexit:                                        ; preds = %17, %.lr.ph, %55, %._crit_edge, %3, %7, %57, %38
  %.0 = phi i32 [ %40, %38 ], [ %59, %57 ], [ 0, %7 ], [ 0, %3 ], [ %.2.lcssa, %._crit_edge ], [ %.1, %55 ], [ %42, %.lr.ph ], [ %27, %17 ]
  ret i32 %.0
}